; Function Attrs: mustprogress nounwind uwtable
define dso_local void @_ZN19cmUVJobServerClient4ImplD2Ev(ptr noundef nonnull align 8 dereferenceable(104) %0) unnamed_addr #4 align 2 personality ptr @__gxx_personality_v0 {
  store ptr getelementptr inbounds ({ [7 x ptr] }, ptr @_ZTVN19cmUVJobServerClient4ImplE, i64 0, i32 0, i64 2), ptr %0, align 8
  %2 = getelementptr inbounds i8, ptr %0, i64 80
  %3 = load ptr, ptr %2, align 8
  %.not.i.i = icmp eq ptr %3, null
  br i1 %.not.i.i, label %_ZNSt8functionIFviEED2Ev.exit, label %4

4:                                                ; preds = %1
  %5 = getelementptr inbounds i8, ptr %0, i64 64
  %6 = invoke noundef zeroext i1 %3(ptr noundef nonnull align 8 dereferenceable(16) %5, ptr noundef nonnull align 8 dereferenceable(16) %5, i32 noundef 3)
          to label %_ZNSt8functionIFviEED2Ev.exit unwind label %7

7:                                                ; preds = %4
  %8 = landingpad { ptr, i32 }
          catch ptr null
  %9 = extractvalue { ptr, i32 } %8, 0
  tail call void @__clang_call_terminate(ptr %9) #23
  unreachable

_ZNSt8functionIFviEED2Ev.exit:                    ; preds = %1, %4
  %10 = getelementptr inbounds i8, ptr %0, i64 48
  %11 = load ptr, ptr %10, align 8
  %.not.i.i1 = icmp eq ptr %11, null
  br i1 %.not.i.i1, label %_ZNSt8functionIFvvEED2Ev.exit, label %12

12:                                               ; preds = %_ZNSt8functionIFviEED2Ev.exit
  %13 = getelementptr inbounds i8, ptr %0, i64 32
  %14 = invoke noundef zeroext i1 %11(ptr noundef nonnull align 8 dereferenceable(16) %13, ptr noundef nonnull align 8 dereferenceable(16) %13, i32 noundef 3)
          to label %_ZNSt8functionIFvvEED2Ev.exit unwind label %15

15:                                               ; preds = %12
  %16 = landingpad { ptr, i32 }
          catch ptr null
  %17 = extractvalue { ptr, i32 } %16, 0
  tail call void @__clang_call_terminate(ptr %17) #23
  unreachable

_ZNSt8functionIFvvEED2Ev.exit:                    ; preds = %_ZNSt8functionIFviEED2Ev.exit, %12
  %18 = getelementptr inbounds i8, ptr %0, i64 16
  tail call void @_ZN2cm19uv_handle_ptr_base_I9uv_idle_sED2Ev(ptr noundef nonnull align 8 dereferenceable(16) %18) #24
  ret void
}